; Function Attrs: mustprogress uwtable
define void @_ZN7rocksdb11PosixHelper30GetLogicalBlockSizeOfDirectoryERKNSt7__cxx1112basic_stringIcSt11char_traitsIcESaIcEEEPm(ptr noalias sret(%"class.rocksdb::Status") align 8 %agg.result, ptr noundef nonnull align 8 dereferenceable(32) %directory, ptr nocapture noundef writeonly %size) local_unnamed_addr #0 align 2 personality ptr @__gxx_personality_v0 {
entry:
  %ref.tmp = alloca %"class.rocksdb::Slice", align 8
  %ref.tmp3 = alloca %"class.std::__cxx11::basic_string", align 8
  %ref.tmp4 = alloca %"class.rocksdb::Slice", align 8
  %call = tail call noundef ptr @_ZNKSt7__cxx1112basic_stringIcSt11char_traitsIcESaIcEE5c_strEv(ptr noundef nonnull align 8 dereferenceable(32) %directory) #25
  %call1 = tail call i32 (ptr, i32, ...) @open(ptr noundef %call, i32 noundef 65536)
  %cmp = icmp eq i32 %call1, -1
  br i1 %cmp, label %if.then, label %if.end

if.then:                                          ; preds = %entry
  %call2 = tail call i32 @close(i32 noundef -1)
  call void @_ZStplIcSt11char_traitsIcESaIcEENSt7__cxx1112basic_stringIT_T0_T1_EEPKS5_RKS8_(ptr nonnull sret(%"class.std::__cxx11::basic_string") align 8 %ref.tmp3, ptr noundef nonnull @.str.9, ptr noundef nonnull align 8 dereferenceable(32) %directory)
  %call.i = call noundef ptr @_ZNKSt7__cxx1112basic_stringIcSt11char_traitsIcESaIcEE4dataEv(ptr noundef nonnull align 8 dereferenceable(32) %ref.tmp3) #25
  store ptr %call.i, ptr %ref.tmp, align 8
  %size_.i = getelementptr inbounds i8, ptr %ref.tmp, i64 8
  %call2.i = call noundef i64 @_ZNKSt7__cxx1112basic_stringIcSt11char_traitsIcESaIcEE4sizeEv(ptr noundef nonnull align 8 dereferenceable(32) %ref.tmp3) #25
  store i64 %call2.i, ptr %size_.i, align 8
  store ptr @.str.63, ptr %ref.tmp4, align 8
  %size_.i5 = getelementptr inbounds i8, ptr %ref.tmp4, i64 8
  store i64 0, ptr %size_.i5, align 8
  invoke void @_ZN7rocksdb6StatusC2ENS0_4CodeENS0_7SubCodeERKNS_5SliceES5_NS0_8SeverityE(ptr noundef nonnull align 8 dereferenceable(16) %agg.result, i8 noundef zeroext 5, i8 noundef zeroext 0, ptr noundef nonnull align 8 dereferenceable(16) %ref.tmp, ptr noundef nonnull align 8 dereferenceable(16) %ref.tmp4, i8 noundef zeroext 0)
          to label %invoke.cont6 unwind label %lpad

invoke.cont6:                                     ; preds = %if.then
  call void @_ZNSt7__cxx1112basic_stringIcSt11char_traitsIcESaIcEED1Ev(ptr noundef nonnull align 8 dereferenceable(32) %ref.tmp3) #25
  br label %return

lpad:                                             ; preds = %if.then
  %0 = landingpad { ptr, i32 }
          cleanup
  call void @_ZNSt7__cxx1112basic_stringIcSt11char_traitsIcESaIcEED1Ev(ptr noundef nonnull align 8 dereferenceable(32) %ref.tmp3) #25
  resume { ptr, i32 } %0

if.end:                                           ; preds = %entry
  %call7 = tail call noundef i64 @_ZN7rocksdb11PosixHelper23GetLogicalBlockSizeOfFdEi(i32 noundef %call1), !range !42
  store i64 %call7, ptr %size, align 8
  %call8 = tail call i32 @close(i32 noundef %call1)
  %state_.i.i = getelementptr inbounds i8, ptr %agg.result, i64 8
  store ptr null, ptr %state_.i.i, align 8, !alias.scope !43
  tail call void @llvm.memset.p0.i64(ptr noundef nonnull align 8 dereferenceable(6) %agg.result, i8 0, i64 6, i1 false), !alias.scope !43
  br label %return

return:                                           ; preds = %if.end, %invoke.cont6
  ret void
}